target datalayout = "e-m:e-p270:32:32-p271:32:32-p272:64:64-i64:64-i128:128-f80:128-n8:16:32:64-S128"
target triple = "x86_64-pc-linux-gnu"

%struct.mbedtls_mpi = type { ptr, i16, i16 }
%struct.psa_key_attributes_s = type { i16, i16, i32, %struct.psa_key_policy_s, i32 }
%struct.psa_key_policy_s = type { i32, i32, i32 }
%struct.mbedtls_rsa_context = type { i32, i64, %struct.mbedtls_mpi, %struct.mbedtls_mpi, %struct.mbedtls_mpi, %struct.mbedtls_mpi, %struct.mbedtls_mpi, %struct.mbedtls_mpi, %struct.mbedtls_mpi, %struct.mbedtls_mpi, %struct.mbedtls_mpi, %struct.mbedtls_mpi, %struct.mbedtls_mpi, %struct.mbedtls_mpi, %struct.mbedtls_mpi, i32, i32 }

; Function Attrs: nounwind uwtable
define hidden i32 @mbedtls_psa_rsa_export_key(i16 noundef zeroext %0, ptr noundef %1, ptr noundef %2, i64 noundef %3, ptr noundef %4) #0 {
  %6 = alloca i32, align 4
  %7 = alloca i16, align 2
  %8 = alloca ptr, align 8
  %9 = alloca ptr, align 8
  %10 = alloca i64, align 8
  %11 = alloca ptr, align 8
  %12 = alloca i32, align 4
  %13 = alloca ptr, align 8
  %14 = alloca i32, align 4
  store i16 %0, ptr %7, align 2, !tbaa !3
  store ptr %1, ptr %8, align 8, !tbaa !15
  store ptr %2, ptr %9, align 8, !tbaa !7
  store i64 %3, ptr %10, align 8, !tbaa !10
  store ptr %4, ptr %11, align 8, !tbaa !21
  call void @llvm.lifetime.start.p0(i64 4, ptr %12) #8
  call void @llvm.lifetime.start.p0(i64 8, ptr %13) #8
  %15 = load ptr, ptr %9, align 8, !tbaa !7
  %16 = load i64, ptr %10, align 8, !tbaa !10
  %17 = getelementptr inbounds nuw i8, ptr %15, i64 %16
  store ptr %17, ptr %13, align 8, !tbaa !7
  %18 = load i16, ptr %7, align 2, !tbaa !3
  %19 = zext i16 %18 to i32
  %20 = and i32 %19, 28672
  %21 = icmp eq i32 %20, 28672
  br i1 %21, label %22, label %26

22:                                               ; preds = %5
  %23 = load ptr, ptr %8, align 8, !tbaa !15
  %24 = load ptr, ptr %9, align 8, !tbaa !7
  %25 = call i32 @mbedtls_rsa_write_key(ptr noundef %23, ptr noundef %24, ptr noundef %13)
  store i32 %25, ptr %12, align 4, !tbaa !17
  br label %30

26:                                               ; preds = %5
  %27 = load ptr, ptr %8, align 8, !tbaa !15
  %28 = load ptr, ptr %9, align 8, !tbaa !7
  %29 = call i32 @mbedtls_rsa_write_pubkey(ptr noundef %27, ptr noundef %28, ptr noundef %13)
  store i32 %29, ptr %12, align 4, !tbaa !17
  br label %30

30:                                               ; preds = %26, %22
  %31 = load i32, ptr %12, align 4, !tbaa !17
  %32 = icmp slt i32 %31, 0
  br i1 %32, label %33, label %38

33:                                               ; preds = %30
  %34 = load ptr, ptr %9, align 8, !tbaa !7
  %35 = load i64, ptr %10, align 8, !tbaa !10
  call void @llvm.memset.p0.i64(ptr align 1 %34, i8 0, i64 %35, i1 false)
  %36 = load i32, ptr %12, align 4, !tbaa !17
  %37 = call i32 @mbedtls_to_psa_error(i32 noundef %36)
  store i32 %37, ptr %6, align 4
  store i32 1, ptr %14, align 4
  br label %93

38:                                               ; preds = %30
  %39 = load i32, ptr %12, align 4, !tbaa !17
  %40 = sext i32 %39 to i64
  %41 = mul i64 2, %40
  %42 = load i64, ptr %10, align 8, !tbaa !10
  %43 = icmp ule i64 %41, %42
  br i1 %43, label %44, label %64

44:                                               ; preds = %38
  %45 = load ptr, ptr %9, align 8, !tbaa !7
  %46 = load ptr, ptr %9, align 8, !tbaa !7
  %47 = load i64, ptr %10, align 8, !tbaa !10
  %48 = getelementptr inbounds nuw i8, ptr %46, i64 %47
  %49 = load i32, ptr %12, align 4, !tbaa !17
  %50 = sext i32 %49 to i64
  %51 = sub i64 0, %50
  %52 = getelementptr inbounds i8, ptr %48, i64 %51
  %53 = load i32, ptr %12, align 4, !tbaa !17
  %54 = sext i32 %53 to i64
  call void @llvm.memcpy.p0.p0.i64(ptr align 1 %45, ptr align 1 %52, i64 %54, i1 false)
  %55 = load ptr, ptr %9, align 8, !tbaa !7
  %56 = load i64, ptr %10, align 8, !tbaa !10
  %57 = getelementptr inbounds nuw i8, ptr %55, i64 %56
  %58 = load i32, ptr %12, align 4, !tbaa !17
  %59 = sext i32 %58 to i64
  %60 = sub i64 0, %59
  %61 = getelementptr inbounds i8, ptr %57, i64 %60
  %62 = load i32, ptr %12, align 4, !tbaa !17
  %63 = sext i32 %62 to i64
  call void @llvm.memset.p0.i64(ptr align 1 %61, i8 0, i64 %63, i1 false)
  br label %89

64:                                               ; preds = %38
  %65 = load i32, ptr %12, align 4, !tbaa !17
  %66 = sext i32 %65 to i64
  %67 = load i64, ptr %10, align 8, !tbaa !10
  %68 = icmp ult i64 %66, %67
  br i1 %68, label %69, label %88

69:                                               ; preds = %64
  %70 = load ptr, ptr %9, align 8, !tbaa !7
  %71 = load ptr, ptr %9, align 8, !tbaa !7
  %72 = load i64, ptr %10, align 8, !tbaa !10
  %73 = getelementptr inbounds nuw i8, ptr %71, i64 %72
  %74 = load i32, ptr %12, align 4, !tbaa !17
  %75 = sext i32 %74 to i64
  %76 = sub i64 0, %75
  %77 = getelementptr inbounds i8, ptr %73, i64 %76
  %78 = load i32, ptr %12, align 4, !tbaa !17
  %79 = sext i32 %78 to i64
  call void @llvm.memmove.p0.p0.i64(ptr align 1 %70, ptr align 1 %77, i64 %79, i1 false)
  %80 = load ptr, ptr %9, align 8, !tbaa !7
  %81 = load i32, ptr %12, align 4, !tbaa !17
  %82 = sext i32 %81 to i64
  %83 = getelementptr inbounds i8, ptr %80, i64 %82
  %84 = load i64, ptr %10, align 8, !tbaa !10
  %85 = load i32, ptr %12, align 4, !tbaa !17
  %86 = sext i32 %85 to i64
  %87 = sub i64 %84, %86
  call void @llvm.memset.p0.i64(ptr align 1 %83, i8 0, i64 %87, i1 false)
  br label %88

88:                                               ; preds = %69, %64
  br label %89

89:                                               ; preds = %88, %44
  %90 = load i32, ptr %12, align 4, !tbaa !17
  %91 = sext i32 %90 to i64
  %92 = load ptr, ptr %11, align 8, !tbaa !21
  store i64 %91, ptr %92, align 8, !tbaa !10
  store i32 0, ptr %6, align 4
  store i32 1, ptr %14, align 4
  br label %93

93:                                               ; preds = %89, %33
  call void @llvm.lifetime.end.p0(i64 8, ptr %13) #8
  call void @llvm.lifetime.end.p0(i64 4, ptr %12) #8
  %94 = load i32, ptr %6, align 4
  ret i32 %94
}

; Function Attrs: nounwind uwtable
define internal i32 @psa_rsa_read_exponent(ptr noundef %0, i64 noundef %1, ptr noundef %2) #0 {
  %4 = alloca i32, align 4
  %5 = alloca ptr, align 8
  %6 = alloca i64, align 8
  %7 = alloca ptr, align 8
  %8 = alloca i64, align 8
  %9 = alloca i32, align 4
  %10 = alloca i32, align 4
  store ptr %0, ptr %5, align 8, !tbaa !7
  store i64 %1, ptr %6, align 8, !tbaa !10
  store ptr %2, ptr %7, align 8, !tbaa !27
  call void @llvm.lifetime.start.p0(i64 8, ptr %8) #8
  call void @llvm.lifetime.start.p0(i64 4, ptr %9) #8
  store i32 0, ptr %9, align 4, !tbaa !17
  %11 = load i64, ptr %6, align 8, !tbaa !10
  %12 = icmp ugt i64 %11, 4
  br i1 %12, label %13, label %14

13:                                               ; preds = %3
  store i32 -134, ptr %4, align 4
  store i32 1, ptr %10, align 4
  br label %38

14:                                               ; preds = %3
  store i64 0, ptr %8, align 8, !tbaa !10
  br label %15

15:                                               ; preds = %28, %14
  %16 = load i64, ptr %8, align 8, !tbaa !10
  %17 = load i64, ptr %6, align 8, !tbaa !10
  %18 = icmp ult i64 %16, %17
  br i1 %18, label %19, label %31

19:                                               ; preds = %15
  %20 = load i32, ptr %9, align 4, !tbaa !17
  %21 = shl i32 %20, 8
  %22 = load ptr, ptr %5, align 8, !tbaa !7
  %23 = load i64, ptr %8, align 8, !tbaa !10
  %24 = getelementptr inbounds nuw i8, ptr %22, i64 %23
  %25 = load i8, ptr %24, align 1, !tbaa !29
  %26 = zext i8 %25 to i32
  %27 = or i32 %21, %26
  store i32 %27, ptr %9, align 4, !tbaa !17
  br label %28

28:                                               ; preds = %19
  %29 = load i64, ptr %8, align 8, !tbaa !10
  %30 = add i64 %29, 1
  store i64 %30, ptr %8, align 8, !tbaa !10
  br label %15, !llvm.loop !30

31:                                               ; preds = %15
  %32 = load i32, ptr %9, align 4, !tbaa !17
  %33 = icmp ugt i32 %32, 2147483647
  br i1 %33, label %34, label %35

34:                                               ; preds = %31
  store i32 -134, ptr %4, align 4
  store i32 1, ptr %10, align 4
  br label %38

35:                                               ; preds = %31
  %36 = load i32, ptr %9, align 4, !tbaa !17
  %37 = load ptr, ptr %7, align 8, !tbaa !27
  store i32 %36, ptr %37, align 4, !tbaa !17
  store i32 0, ptr %4, align 4
  store i32 1, ptr %10, align 4
  br label %38

38:                                               ; preds = %35, %34, %13
  call void @llvm.lifetime.end.p0(i64 4, ptr %9) #8
  call void @llvm.lifetime.end.p0(i64 8, ptr %8) #8
  %39 = load i32, ptr %4, align 4
  ret i32 %39
}

; Function Attrs: nounwind uwtable
define hidden i32 @mbedtls_psa_rsa_generate_key(ptr noundef %0, ptr noundef %1, i64 noundef %2, ptr noundef %3, i64 noundef %4, ptr noundef %5) #0 {
  %7 = alloca i32, align 4
  %8 = alloca ptr, align 8
  %9 = alloca ptr, align 8
  %10 = alloca i64, align 8
  %11 = alloca ptr, align 8
  %12 = alloca i64, align 8
  %13 = alloca ptr, align 8
  %14 = alloca i32, align 4
  %15 = alloca %struct.mbedtls_rsa_context, align 8
  %16 = alloca i32, align 4
  %17 = alloca i32, align 4
  %18 = alloca i32, align 4
  store ptr %0, ptr %8, align 8, !tbaa !19
  store ptr %1, ptr %9, align 8, !tbaa !7
  store i64 %2, ptr %10, align 8, !tbaa !10
  store ptr %3, ptr %11, align 8, !tbaa !7
  store i64 %4, ptr %12, align 8, !tbaa !10
  store ptr %5, ptr %13, align 8, !tbaa !21
  call void @llvm.lifetime.start.p0(i64 4, ptr %14) #8
  call void @llvm.lifetime.start.p0(i64 232, ptr %15) #8
  call void @llvm.lifetime.start.p0(i64 4, ptr %16) #8
  store i32 -110, ptr %16, align 4, !tbaa !17
  call void @llvm.lifetime.start.p0(i64 4, ptr %17) #8
  store i32 65537, ptr %17, align 4, !tbaa !17
  %19 = load i64, ptr %10, align 8, !tbaa !10
  %20 = icmp ne i64 %19, 0
  br i1 %20, label %21, label %30

21:                                               ; preds = %6
  %22 = load ptr, ptr %9, align 8, !tbaa !7
  %23 = load i64, ptr %10, align 8, !tbaa !10
  %24 = call i32 @psa_rsa_read_exponent(ptr noundef %22, i64 noundef %23, ptr noundef %17)
  store i32 %24, ptr %14, align 4, !tbaa !17
  %25 = load i32, ptr %14, align 4, !tbaa !17
  %26 = icmp ne i32 %25, 0
  br i1 %26, label %27, label %29

27:                                               ; preds = %21
  %28 = load i32, ptr %14, align 4, !tbaa !17
  store i32 %28, ptr %7, align 4
  store i32 1, ptr %18, align 4
  br label %51

29:                                               ; preds = %21
  br label %30

30:                                               ; preds = %29, %6
  call void @mbedtls_rsa_init(ptr noundef %15)
  %31 = load ptr, ptr %8, align 8, !tbaa !19
  %32 = getelementptr inbounds nuw %struct.psa_key_attributes_s, ptr %31, i32 0, i32 1
  %33 = load i16, ptr %32, align 2, !tbaa !26
  %34 = zext i16 %33 to i32
  %35 = load i32, ptr %17, align 4, !tbaa !17
  %36 = call i32 @mbedtls_rsa_gen_key(ptr noundef %15, ptr noundef @mbedtls_psa_get_random, ptr noundef null, i32 noundef %34, i32 noundef %35)
  store i32 %36, ptr %16, align 4, !tbaa !17
  %37 = load i32, ptr %16, align 4, !tbaa !17
  %38 = icmp ne i32 %37, 0
  br i1 %38, label %39, label %42

39:                                               ; preds = %30
  call void @mbedtls_rsa_free(ptr noundef %15)
  %40 = load i32, ptr %16, align 4, !tbaa !17
  %41 = call i32 @mbedtls_to_psa_error(i32 noundef %40)
  store i32 %41, ptr %7, align 4
  store i32 1, ptr %18, align 4
  br label %51

42:                                               ; preds = %30
  %43 = load ptr, ptr %8, align 8, !tbaa !19
  %44 = getelementptr inbounds nuw %struct.psa_key_attributes_s, ptr %43, i32 0, i32 0
  %45 = load i16, ptr %44, align 4, !tbaa !23
  %46 = load ptr, ptr %11, align 8, !tbaa !7
  %47 = load i64, ptr %12, align 8, !tbaa !10
  %48 = load ptr, ptr %13, align 8, !tbaa !21
  %49 = call i32 @mbedtls_psa_rsa_export_key(i16 noundef zeroext %45, ptr noundef %15, ptr noundef %46, i64 noundef %47, ptr noundef %48)
  store i32 %49, ptr %14, align 4, !tbaa !17
  call void @mbedtls_rsa_free(ptr noundef %15)
  %50 = load i32, ptr %14, align 4, !tbaa !17
  store i32 %50, ptr %7, align 4
  store i32 1, ptr %18, align 4
  br label %51

51:                                               ; preds = %42, %39, %27
  call void @llvm.lifetime.end.p0(i64 4, ptr %17) #8
  call void @llvm.lifetime.end.p0(i64 4, ptr %16) #8
  call void @llvm.lifetime.end.p0(i64 232, ptr %15) #8
  call void @llvm.lifetime.end.p0(i64 4, ptr %14) #8
  %52 = load i32, ptr %7, align 4
  ret i32 %52
}