; Function Attrs: nounwind uwtable
define hidden i32 @mbedtls_psa_rsa_generate_key(ptr noundef readonly captures(none) %0, ptr noundef readonly captures(none) %1, i64 noundef %2, ptr noundef %3, i64 noundef %4, ptr noundef writeonly captures(none) %5) local_unnamed_addr #0 {
  %7 = alloca ptr, align 8
  %8 = alloca %struct.mbedtls_rsa_context, align 8
  call void @llvm.lifetime.start.p0(i64 232, ptr nonnull %8) #9
  %.not = icmp eq i64 %2, 0
  br i1 %.not, label %psa_rsa_read_exponent.exit, label %9

9:                                                ; preds = %6
  %10 = icmp ugt i64 %2, 4
  br i1 %10, label %psa_rsa_read_exponent.exit.thread, label %.preheader.i

.preheader.i:                                     ; preds = %9, %.preheader.i
  %.014.i = phi i32 [ %15, %.preheader.i ], [ 0, %9 ]
  %.01013.i = phi i64 [ %16, %.preheader.i ], [ 0, %9 ]
  %11 = shl i32 %.014.i, 8
  %12 = getelementptr inbounds nuw i8, ptr %1, i64 %.01013.i
  %13 = load i8, ptr %12, align 1, !tbaa !17
  %14 = zext i8 %13 to i32
  %15 = or disjoint i32 %11, %14
  %16 = add nuw nsw i64 %.01013.i, 1
  %exitcond.not.i = icmp eq i64 %16, %2
  br i1 %exitcond.not.i, label %17, label %.preheader.i, !llvm.loop !18

17:                                               ; preds = %.preheader.i
  %18 = icmp slt i32 %11, 0
  br i1 %18, label %psa_rsa_read_exponent.exit.thread, label %psa_rsa_read_exponent.exit

psa_rsa_read_exponent.exit:                       ; preds = %17, %6
  %.018 = phi i32 [ 65537, %6 ], [ %15, %17 ]
  call void @mbedtls_rsa_init(ptr noundef nonnull %8) #9
  %19 = getelementptr inbounds nuw i8, ptr %0, i64 2
  %20 = load i16, ptr %19, align 2, !tbaa !20
  %21 = zext i16 %20 to i32
  %22 = call i32 @mbedtls_rsa_gen_key(ptr noundef nonnull %8, ptr noundef nonnull @mbedtls_psa_get_random, ptr noundef null, i32 noundef %21, i32 noundef %.018) #9
  %.not17 = icmp eq i32 %22, 0
  br i1 %.not17, label %25, label %23

23:                                               ; preds = %psa_rsa_read_exponent.exit
  call void @mbedtls_rsa_free(ptr noundef nonnull %8) #9
  %24 = call i32 @mbedtls_to_psa_error(i32 noundef %22) #9
  br label %psa_rsa_read_exponent.exit.thread

25:                                               ; preds = %psa_rsa_read_exponent.exit
  %26 = load i16, ptr %0, align 4, !tbaa !8
  call void @llvm.lifetime.start.p0(i64 8, ptr nonnull %7) #9
  %27 = getelementptr inbounds nuw i8, ptr %3, i64 %4
  store ptr %27, ptr %7, align 8, !tbaa !15
  %28 = and i16 %26, 28672
  %29 = icmp eq i16 %28, 28672
  br i1 %29, label %30, label %32

30:                                               ; preds = %25
  %31 = call i32 @mbedtls_rsa_write_key(ptr noundef nonnull %8, ptr noundef %3, ptr noundef nonnull %7) #9
  br label %34

32:                                               ; preds = %25
  %33 = call i32 @mbedtls_rsa_write_pubkey(ptr noundef nonnull %8, ptr noundef %3, ptr noundef nonnull %7) #9
  br label %34

34:                                               ; preds = %32, %30
  %.0.i = phi i32 [ %31, %30 ], [ %33, %32 ]
  %35 = icmp slt i32 %.0.i, 0
  br i1 %35, label %36, label %38

36:                                               ; preds = %34
  call void @llvm.memset.p0.i64(ptr align 1 %3, i8 0, i64 %4, i1 false)
  %37 = call i32 @mbedtls_to_psa_error(i32 noundef %.0.i) #9
  br label %mbedtls_psa_rsa_export_key.exit

38:                                               ; preds = %34
  %39 = zext nneg i32 %.0.i to i64
  %40 = shl nuw nsw i64 %39, 1
  %.not.i = icmp ugt i64 %40, %4
  br i1 %.not.i, label %44, label %41

41:                                               ; preds = %38
  %42 = sub nsw i64 0, %39
  %43 = getelementptr inbounds i8, ptr %27, i64 %42
  call void @llvm.memcpy.p0.p0.i64(ptr align 1 %3, ptr align 1 %43, i64 %39, i1 false)
  call void @llvm.memset.p0.i64(ptr align 1 %43, i8 0, i64 %39, i1 false)
  br label %51

44:                                               ; preds = %38
  %45 = icmp samesign ugt i64 %4, %39
  br i1 %45, label %46, label %51

46:                                               ; preds = %44
  %47 = sub nsw i64 0, %39
  %48 = getelementptr inbounds i8, ptr %27, i64 %47
  call void @llvm.memmove.p0.p0.i64(ptr align 1 %3, ptr nonnull align 1 %48, i64 %39, i1 false)
  %49 = getelementptr inbounds nuw i8, ptr %3, i64 %39
  %50 = sub nuw nsw i64 %4, %39
  call void @llvm.memset.p0.i64(ptr align 1 %49, i8 0, i64 %50, i1 false)
  br label %51

51:                                               ; preds = %46, %44, %41
  store i64 %39, ptr %5, align 8, !tbaa !13
  br label %mbedtls_psa_rsa_export_key.exit

mbedtls_psa_rsa_export_key.exit:                  ; preds = %36, %51
  %.035.i = phi i32 [ %37, %36 ], [ 0, %51 ]
  call void @llvm.lifetime.end.p0(i64 8, ptr nonnull %7) #9
  call void @mbedtls_rsa_free(ptr noundef nonnull %8) #9
  br label %psa_rsa_read_exponent.exit.thread

psa_rsa_read_exponent.exit.thread:                ; preds = %17, %9, %mbedtls_psa_rsa_export_key.exit, %23
  %.0 = phi i32 [ %24, %23 ], [ %.035.i, %mbedtls_psa_rsa_export_key.exit ], [ -134, %9 ], [ -134, %17 ]
  call void @llvm.lifetime.end.p0(i64 232, ptr nonnull %8) #9
  ret i32 %.0
}